; Function Attrs: mustprogress nofree norecurse nosync nounwind willreturn memory(read, inaccessiblemem: none) uwtable
define hidden noundef zeroext i1 @_ZNK19OpenColorIO_v2_4dev11Lut1DOpData16hasExtendedRangeEv(ptr nocapture noundef nonnull readonly align 8 dereferenceable(364) %this) local_unnamed_addr #13 align 2 {
entry:
  %m_data.i = getelementptr inbounds i8, ptr %this, i64 200
  %0 = load ptr, ptr %m_data.i, align 8
  %_M_finish.i = getelementptr inbounds i8, ptr %this, i64 208
  %1 = load ptr, ptr %_M_finish.i, align 8
  %cmp.i6.not = icmp eq ptr %0, %1
  br i1 %cmp.i6.not, label %return, label %for.body

for.body:                                         ; preds = %entry, %for.inc
  %__begin1.sroa.0.07 = phi ptr [ %incdec.ptr.i, %for.inc ], [ %0, %entry ]
  %2 = load float, ptr %__begin1.sroa.0.07, align 4
  %3 = fcmp uno float %2, 0.000000e+00
  br i1 %3, label %for.inc, label %if.end

if.end:                                           ; preds = %for.body
  %cmp = fcmp olt float %2, 0xBEE4F8B580000000
  %cmp11 = fcmp ogt float %2, 0x3FF0000A80000000
  %or.cond = or i1 %cmp, %cmp11
  br i1 %or.cond, label %return, label %for.inc

for.inc:                                          ; preds = %if.end, %for.body
  %incdec.ptr.i = getelementptr inbounds i8, ptr %__begin1.sroa.0.07, i64 4
  %cmp.i.not = icmp eq ptr %incdec.ptr.i, %1
  br i1 %cmp.i.not, label %return, label %for.body

return:                                           ; preds = %if.end, %for.inc, %entry
  %cmp.i.lcssa = phi i1 [ false, %entry ], [ false, %for.inc ], [ true, %if.end ]
  ret i1 %cmp.i.lcssa
}